; Function Attrs: mustprogress nofree norecurse nosync nounwind willreturn memory(argmem: read) uwtable
define i32 @lv_bar_get_min_value(ptr nocapture noundef readonly %0) local_unnamed_addr #3 {
  %2 = getelementptr inbounds nuw i8, ptr %0, i64 96
  %3 = load i8, ptr %2, align 8, !tbaa !16, !range !39, !noundef !40
  %4 = trunc nuw i8 %3 to i1
  %.in.v = select i1 %4, i64 72, i64 68
  %.in = getelementptr inbounds nuw i8, ptr %0, i64 %.in.v
  %5 = load i32, ptr %.in, align 4, !tbaa !22
  ret i32 %5
}